target datalayout = "e-m:e-p270:32:32-p271:32:32-p272:64:64-i64:64-i128:128-f80:128-n8:16:32:64-S128"
target triple = "x86_64-pc-linux-gnu"

; Function Attrs: inlinehint nounwind uwtable
define internal ptr @ossl_check_GENERAL_NAMES_freefunc_type(ptr noundef %0) #3 {
  %2 = alloca ptr, align 8
  store ptr %0, ptr %2, align 8, !tbaa !89
  %3 = load ptr, ptr %2, align 8, !tbaa !89
  ret ptr %3
}

; Function Attrs: inlinehint nounwind uwtable
define internal ptr @ossl_check_GENERAL_NAMES_type(ptr noundef %0) #3 {
  %2 = alloca ptr, align 8
  store ptr %0, ptr %2, align 8, !tbaa !82
  %3 = load ptr, ptr %2, align 8, !tbaa !82
  ret ptr %3
}

; Function Attrs: inlinehint nounwind uwtable
define internal ptr @ossl_check_GENERAL_NAMES_sk_type(ptr noundef %0) #3 {
  %2 = alloca ptr, align 8
  store ptr %0, ptr %2, align 8, !tbaa !77
  %3 = load ptr, ptr %2, align 8, !tbaa !77
  ret ptr %3
}

; Function Attrs: inlinehint nounwind uwtable
define internal ptr @ossl_check_GENERAL_NAME_type(ptr noundef %0) #3 {
  %2 = alloca ptr, align 8
  store ptr %0, ptr %2, align 8, !tbaa !84
  %3 = load ptr, ptr %2, align 8, !tbaa !84
  ret ptr %3
}

; Function Attrs: inlinehint nounwind uwtable
define internal ptr @ossl_check_GENERAL_NAME_sk_type(ptr noundef %0) #3 {
  %2 = alloca ptr, align 8
  store ptr %0, ptr %2, align 8, !tbaa !82
  %3 = load ptr, ptr %2, align 8, !tbaa !82
  ret ptr %3
}

; Function Attrs: inlinehint nounwind uwtable
define internal ptr @ossl_check_const_OPENSSL_STRING_sk_type(ptr noundef %0) #3 {
  %2 = alloca ptr, align 8
  store ptr %0, ptr %2, align 8, !tbaa !29
  %3 = load ptr, ptr %2, align 8, !tbaa !29
  ret ptr %3
}

; Function Attrs: nounwind uwtable
define internal ptr @make_names_stack(ptr noundef %0) #0 {
  %2 = alloca ptr, align 8
  %3 = alloca ptr, align 8
  %4 = alloca i32, align 4
  %5 = alloca ptr, align 8
  %6 = alloca ptr, align 8
  %7 = alloca ptr, align 8
  %8 = alloca ptr, align 8
  %9 = alloca i32, align 4
  store ptr %0, ptr %3, align 8, !tbaa !29
  call void @llvm.lifetime.start.p0(i64 4, ptr %4) #4
  call void @llvm.lifetime.start.p0(i64 8, ptr %5) #4
  call void @llvm.lifetime.start.p0(i64 8, ptr %6) #4
  store ptr null, ptr %6, align 8, !tbaa !82
  call void @llvm.lifetime.start.p0(i64 8, ptr %7) #4
  store ptr null, ptr %7, align 8, !tbaa !84
  %10 = call ptr @OPENSSL_sk_new_null()
  store ptr %10, ptr %5, align 8, !tbaa !77
  %11 = load ptr, ptr %5, align 8, !tbaa !77
  %12 = icmp eq ptr %11, null
  br i1 %12, label %13, label %14

13:                                               ; preds = %1
  br label %61

14:                                               ; preds = %1
  store i32 0, ptr %4, align 4, !tbaa !4
  br label %15

15:                                               ; preds = %56, %14
  %16 = load i32, ptr %4, align 4, !tbaa !4
  %17 = load ptr, ptr %3, align 8, !tbaa !29
  %18 = call ptr @ossl_check_const_OPENSSL_STRING_sk_type(ptr noundef %17)
  %19 = call i32 @OPENSSL_sk_num(ptr noundef %18)
  %20 = icmp slt i32 %16, %19
  br i1 %20, label %21, label %59

21:                                               ; preds = %15
  call void @llvm.lifetime.start.p0(i64 8, ptr %8) #4
  %22 = load ptr, ptr %3, align 8, !tbaa !29
  %23 = call ptr @ossl_check_const_OPENSSL_STRING_sk_type(ptr noundef %22)
  %24 = load i32, ptr %4, align 4, !tbaa !4
  %25 = call ptr @OPENSSL_sk_value(ptr noundef %23, i32 noundef %24)
  store ptr %25, ptr %8, align 8, !tbaa !39
  %26 = load ptr, ptr %8, align 8, !tbaa !39
  %27 = call ptr @a2i_GENERAL_NAME(ptr noundef null, ptr noundef null, ptr noundef null, i32 noundef 1, ptr noundef %26, i32 noundef 0)
  store ptr %27, ptr %7, align 8, !tbaa !84
  %28 = load ptr, ptr %7, align 8, !tbaa !84
  %29 = icmp eq ptr %28, null
  br i1 %29, label %30, label %31

30:                                               ; preds = %21
  store i32 2, ptr %9, align 4
  br label %53

31:                                               ; preds = %21
  %32 = call ptr @GENERAL_NAMES_new()
  store ptr %32, ptr %6, align 8, !tbaa !82
  %33 = load ptr, ptr %6, align 8, !tbaa !82
  %34 = icmp eq ptr %33, null
  br i1 %34, label %35, label %36

35:                                               ; preds = %31
  store i32 2, ptr %9, align 4
  br label %53

36:                                               ; preds = %31
  %37 = load ptr, ptr %6, align 8, !tbaa !82
  %38 = call ptr @ossl_check_GENERAL_NAME_sk_type(ptr noundef %37)
  %39 = load ptr, ptr %7, align 8, !tbaa !84
  %40 = call ptr @ossl_check_GENERAL_NAME_type(ptr noundef %39)
  %41 = call i32 @OPENSSL_sk_push(ptr noundef %38, ptr noundef %40)
  %42 = icmp ne i32 %41, 0
  br i1 %42, label %44, label %43

43:                                               ; preds = %36
  store i32 2, ptr %9, align 4
  br label %53

44:                                               ; preds = %36
  store ptr null, ptr %7, align 8, !tbaa !84
  %45 = load ptr, ptr %5, align 8, !tbaa !77
  %46 = call ptr @ossl_check_GENERAL_NAMES_sk_type(ptr noundef %45)
  %47 = load ptr, ptr %6, align 8, !tbaa !82
  %48 = call ptr @ossl_check_GENERAL_NAMES_type(ptr noundef %47)
  %49 = call i32 @OPENSSL_sk_push(ptr noundef %46, ptr noundef %48)
  %50 = icmp ne i32 %49, 0
  br i1 %50, label %52, label %51

51:                                               ; preds = %44
  store i32 2, ptr %9, align 4
  br label %53

52:                                               ; preds = %44
  store ptr null, ptr %6, align 8, !tbaa !82
  store i32 0, ptr %9, align 4
  br label %53

53:                                               ; preds = %51, %43, %35, %30, %52
  call void @llvm.lifetime.end.p0(i64 8, ptr %8) #4
  %54 = load i32, ptr %9, align 4
  switch i32 %54, label %67 [
    i32 0, label %55
    i32 2, label %61
  ]

55:                                               ; preds = %53
  br label %56

56:                                               ; preds = %55
  %57 = load i32, ptr %4, align 4, !tbaa !4
  %58 = add nsw i32 %57, 1
  store i32 %58, ptr %4, align 4, !tbaa !4
  br label %15, !llvm.loop !88

59:                                               ; preds = %15
  %60 = load ptr, ptr %5, align 8, !tbaa !77
  store ptr %60, ptr %2, align 8
  store i32 1, ptr %9, align 4
  br label %67

61:                                               ; preds = %53, %13
  %62 = load ptr, ptr %5, align 8, !tbaa !77
  %63 = call ptr @ossl_check_GENERAL_NAMES_sk_type(ptr noundef %62)
  %64 = call ptr @ossl_check_GENERAL_NAMES_freefunc_type(ptr noundef @GENERAL_NAMES_free)
  call void @OPENSSL_sk_pop_free(ptr noundef %63, ptr noundef %64)
  %65 = load ptr, ptr %6, align 8, !tbaa !82
  call void @GENERAL_NAMES_free(ptr noundef %65)
  %66 = load ptr, ptr %7, align 8, !tbaa !84
  call void @GENERAL_NAME_free(ptr noundef %66)
  store ptr null, ptr %2, align 8
  store i32 1, ptr %9, align 4
  br label %67

67:                                               ; preds = %61, %59, %53
  call void @llvm.lifetime.end.p0(i64 8, ptr %7) #4
  call void @llvm.lifetime.end.p0(i64 8, ptr %6) #4
  call void @llvm.lifetime.end.p0(i64 8, ptr %5) #4
  call void @llvm.lifetime.end.p0(i64 4, ptr %4) #4
  %68 = load ptr, ptr %2, align 8
  ret ptr %68
}