; Function Attrs: nounwind uwtable
define internal fastcc ptr @make_names_stack(ptr noundef nonnull %0) unnamed_addr #0 {
  %2 = tail call ptr @OPENSSL_sk_new_null() #3
  %3 = icmp eq ptr %2, null
  br i1 %3, label %.split23, label %.preheader

.preheader:                                       ; preds = %1
  %4 = tail call i32 @OPENSSL_sk_num(ptr noundef nonnull %0) #3
  %5 = icmp sgt i32 %4, 0
  br i1 %5, label %.lr.ph, label %.loopexit

6:                                                ; preds = %18
  %7 = add nuw nsw i32 %.02238, 1
  %8 = tail call i32 @OPENSSL_sk_num(ptr noundef nonnull %0) #3
  %9 = icmp slt i32 %7, %8
  br i1 %9, label %.lr.ph, label %.loopexit, !llvm.loop !48

.lr.ph:                                           ; preds = %.preheader, %6
  %.02238 = phi i32 [ %7, %6 ], [ 0, %.preheader ]
  %10 = tail call ptr @OPENSSL_sk_value(ptr noundef nonnull %0, i32 noundef %.02238) #3
  %11 = tail call ptr @a2i_GENERAL_NAME(ptr noundef null, ptr noundef null, ptr noundef null, i32 noundef 1, ptr noundef %10, i32 noundef 0) #3
  %12 = icmp eq ptr %11, null
  br i1 %12, label %.split23, label %13

13:                                               ; preds = %.lr.ph
  %14 = tail call ptr @GENERAL_NAMES_new() #3
  %15 = icmp eq ptr %14, null
  br i1 %15, label %.split23, label %16

16:                                               ; preds = %13
  %17 = tail call i32 @OPENSSL_sk_push(ptr noundef nonnull %14, ptr noundef nonnull %11) #3
  %.not = icmp eq i32 %17, 0
  br i1 %.not, label %.split23, label %18

18:                                               ; preds = %16
  %19 = tail call i32 @OPENSSL_sk_push(ptr noundef nonnull %2, ptr noundef nonnull %14) #3
  %.not29 = icmp eq i32 %19, 0
  br i1 %.not29, label %.split23, label %6

.split23:                                         ; preds = %18, %16, %13, %.lr.ph, %1
  %.020 = phi ptr [ null, %1 ], [ %14, %18 ], [ null, %.lr.ph ], [ null, %13 ], [ %14, %16 ]
  %.019 = phi ptr [ null, %1 ], [ null, %18 ], [ null, %.lr.ph ], [ %11, %13 ], [ %11, %16 ]
  tail call void @OPENSSL_sk_pop_free(ptr noundef %2, ptr noundef nonnull @GENERAL_NAMES_free) #3
  tail call void @GENERAL_NAMES_free(ptr noundef %.020) #3
  tail call void @GENERAL_NAME_free(ptr noundef %.019) #3
  br label %.loopexit

.loopexit:                                        ; preds = %6, %.preheader, %.split23
  %.018 = phi ptr [ null, %.split23 ], [ %2, %.preheader ], [ %2, %6 ]
  ret ptr %.018
}